target datalayout = "e-m:e-p270:32:32-p271:32:32-p272:64:64-i64:64-i128:128-f80:128-n8:16:32:64-S128"
target triple = "x86_64-pc-linux-gnu"

@proto_register_ismp.ett = internal global [7 x ptr] [ptr @ett_ismp, ptr @ett_ismp_edp, ptr @ett_ismp_edp_options, ptr @ett_ismp_edp_neighbors, ptr @ett_ismp_edp_neighbors_leaf, ptr @ett_ismp_edp_tuples, ptr @ett_ismp_edp_tuples_leaf], align 16
@.str.125 = private unnamed_addr constant [29 x i8] c"InterSwitch Message Protocol\00", align 1
@.str.126 = private unnamed_addr constant [5 x i8] c"ISMP\00", align 1
@.str.127 = private unnamed_addr constant [5 x i8] c"ismp\00", align 1
@proto_ismp = internal global i32 0, align 4
@ismp_handle = internal global ptr null, align 8

; Function Attrs: null_pointer_is_valid sspstrong uwtable
define hidden void @proto_register_ismp() #0 {
  %1 = alloca ptr, align 8
  call void @llvm.lifetime.start.p0(i64 8, ptr %1) #4
  %2 = call i32 @proto_register_protocol(ptr noundef @.str.125, ptr noundef @.str.126, ptr noundef @.str.127)
  store i32 %2, ptr @proto_ismp, align 4
  %3 = load i32, ptr @proto_ismp, align 4
  call void @proto_register_field_array(i32 noundef %3, ptr noundef @proto_register_ismp.hf, i32 noundef 66)
  call void @proto_register_subtree_array(ptr noundef @proto_register_ismp.ett, i32 noundef 7)
  %4 = load i32, ptr @proto_ismp, align 4
  %5 = call ptr @expert_register_protocol(i32 noundef %4)
  store ptr %5, ptr %1, align 8
  %6 = load ptr, ptr %1, align 8
  call void @expert_register_field_array(ptr noundef %6, ptr noundef @proto_register_ismp.ei, i32 noundef 1)
  %7 = load i32, ptr @proto_ismp, align 4
  %8 = call ptr @register_dissector(ptr noundef @.str.127, ptr noundef @dissect_ismp, i32 noundef %7)
  store ptr %8, ptr @ismp_handle, align 8
  call void @llvm.lifetime.end.p0(i64 8, ptr %1) #4
  ret void
}